; Function Attrs: mustprogress uwtable
define void @_ZN5folly21parseJsonWithMetadataENS_5RangeIPKcEEPSt13unordered_mapIPKNS_7dynamicENS_4json14parse_metadataESt4hashIS7_ESt8equal_toIS7_ESaISt4pairIKS7_S9_EEE(ptr dead_on_unwind noalias writable sret(%"struct.folly::dynamic") align 8 %0, ptr %1, ptr %2, ptr noundef %3) local_unnamed_addr #3 personality ptr @__gxx_personality_v0 {
  %5 = alloca %"struct.folly::json::serialization_opts", align 16
  call void @llvm.lifetime.start.p0(i64 128, ptr nonnull %5) #31
  %6 = getelementptr inbounds nuw i8, ptr %5, i64 4
  call void @llvm.memset.p0.i64(ptr noundef nonnull align 16 dereferenceable(128) %5, i8 0, i64 128, i1 false)
  store i32 2, ptr %6, align 4, !tbaa !207
  %7 = getelementptr inbounds nuw i8, ptr %5, i64 8
  %8 = getelementptr inbounds nuw i8, ptr %5, i64 16
  %9 = getelementptr inbounds nuw i8, ptr %5, i64 64
  call void @llvm.memset.p0.i64(ptr noundef nonnull align 8 dereferenceable(5) %7, i8 0, i64 5, i1 false)
  store ptr @_ZN5folly6detail8function14FunctionTraitsIKFbRKNS_7dynamicES5_EE10uninitCallES5_S5_RNS1_4DataE, ptr %9, align 16, !tbaa !62
  %10 = getelementptr inbounds nuw i8, ptr %5, i64 72
  %11 = getelementptr inbounds nuw i8, ptr %5, i64 80
  store i8 0, ptr %11, align 16, !tbaa !208
  %12 = getelementptr inbounds nuw i8, ptr %5, i64 84
  %13 = getelementptr inbounds nuw i8, ptr %5, i64 100
  call void @llvm.memset.p0.i64(ptr noundef nonnull align 4 dereferenceable(14) %12, i8 0, i64 14, i1 false)
  store i32 100, ptr %13, align 4, !tbaa !209
  %14 = getelementptr inbounds nuw i8, ptr %5, i64 104
  call void @llvm.memset.p0.i64(ptr noundef nonnull align 8 dereferenceable(16) %14, i8 0, i64 16, i1 false)
  invoke void @_ZN5folly21parseJsonWithMetadataENS_5RangeIPKcEERKNS_4json18serialization_optsEPSt13unordered_mapIPKNS_7dynamicENS4_14parse_metadataESt4hashISB_ESt8equal_toISB_ESaISt4pairIKSB_SC_EEE(ptr dead_on_unwind writable sret(%"struct.folly::dynamic") align 8 %0, ptr %1, ptr %2, ptr noundef nonnull align 16 dereferenceable(120) %5, ptr noundef %3)
          to label %15 unwind label %19

15:                                               ; preds = %4
  %16 = load ptr, ptr %10, align 8, !tbaa !54
  %.not.i.i.i = icmp eq ptr %16, null
  br i1 %.not.i.i.i, label %_ZN5folly4json18serialization_optsD2Ev.exit, label %17

17:                                               ; preds = %15
  %18 = call noundef i64 %16(i32 noundef 1, ptr noundef nonnull align 16 dereferenceable(64) %8, ptr noundef null) #31
  br label %_ZN5folly4json18serialization_optsD2Ev.exit

_ZN5folly4json18serialization_optsD2Ev.exit:      ; preds = %15, %17
  call void @llvm.lifetime.end.p0(i64 128, ptr nonnull %5) #31
  ret void

19:                                               ; preds = %4
  %20 = landingpad { ptr, i32 }
          cleanup
  %21 = load ptr, ptr %10, align 8, !tbaa !54
  %.not.i.i.i4 = icmp eq ptr %21, null
  br i1 %.not.i.i.i4, label %_ZN5folly4json18serialization_optsD2Ev.exit5, label %22

22:                                               ; preds = %19
  %23 = call noundef i64 %21(i32 noundef 1, ptr noundef nonnull align 16 dereferenceable(64) %8, ptr noundef null) #31
  br label %_ZN5folly4json18serialization_optsD2Ev.exit5

_ZN5folly4json18serialization_optsD2Ev.exit5:     ; preds = %19, %22
  call void @llvm.lifetime.end.p0(i64 128, ptr nonnull %5) #31
  resume { ptr, i32 } %20
}